target datalayout = "e-m:e-p270:32:32-p271:32:32-p272:64:64-i64:64-i128:128-f80:128-n8:16:32:64-S128"
target triple = "x86_64-pc-linux-gnu"

; Function Attrs: nounwind sspstrong uwtable
define dso_local i64 @ruby_scan_hex(ptr noundef nonnull %0, i64 noundef %1, ptr noundef nonnull %2) #2 {
  %4 = alloca ptr, align 8
  %5 = alloca i64, align 8
  %6 = alloca ptr, align 8
  %7 = alloca ptr, align 8
  %8 = alloca i64, align 8
  %9 = alloca i8, align 1
  %10 = alloca i64, align 8
  store ptr %0, ptr %4, align 8, !tbaa !7
  store i64 %1, ptr %5, align 8, !tbaa !12
  store ptr %2, ptr %6, align 8, !tbaa !14
  call void @llvm.lifetime.start.p0(i64 8, ptr %7) #16
  %11 = load ptr, ptr %4, align 8, !tbaa !7
  store ptr %11, ptr %7, align 8, !tbaa !7
  call void @llvm.lifetime.start.p0(i64 8, ptr %8) #16
  store i64 0, ptr %8, align 8, !tbaa !12
  call void @llvm.lifetime.start.p0(i64 1, ptr %9) #16
  call void @llvm.lifetime.start.p0(i64 8, ptr %10) #16
  store i64 0, ptr %10, align 8, !tbaa !12
  store i64 0, ptr %10, align 8, !tbaa !12
  br label %12

12:                                               ; preds = %39, %3
  %13 = load i64, ptr %10, align 8, !tbaa !12
  %14 = load i64, ptr %5, align 8, !tbaa !12
  %15 = icmp ult i64 %13, %14
  br i1 %15, label %16, label %42

16:                                               ; preds = %12
  %17 = load ptr, ptr %7, align 8, !tbaa !7
  %18 = load i8, ptr %17, align 1, !tbaa !16
  %19 = zext i8 %18 to i64
  %20 = getelementptr [0 x i8], ptr @ruby_digit36_to_number_table, i64 0, i64 %19
  %21 = load i8, ptr %20, align 1, !tbaa !16
  store i8 %21, ptr %9, align 1, !tbaa !16
  %22 = load i8, ptr %9, align 1, !tbaa !16
  %23 = sext i8 %22 to i32
  %24 = icmp slt i32 %23, 0
  br i1 %24, label %29, label %25

25:                                               ; preds = %16
  %26 = load i8, ptr %9, align 1, !tbaa !16
  %27 = sext i8 %26 to i32
  %28 = icmp slt i32 15, %27
  br i1 %28, label %29, label %30

29:                                               ; preds = %25, %16
  br label %42

30:                                               ; preds = %25
  %31 = load i64, ptr %8, align 8, !tbaa !12
  %32 = shl i64 %31, 4
  store i64 %32, ptr %8, align 8, !tbaa !12
  %33 = load i8, ptr %9, align 1, !tbaa !16
  %34 = sext i8 %33 to i64
  %35 = load i64, ptr %8, align 8, !tbaa !12
  %36 = or i64 %35, %34
  store i64 %36, ptr %8, align 8, !tbaa !12
  %37 = load ptr, ptr %7, align 8, !tbaa !7
  %38 = getelementptr i8, ptr %37, i32 1
  store ptr %38, ptr %7, align 8, !tbaa !7
  br label %39

39:                                               ; preds = %30
  %40 = load i64, ptr %10, align 8, !tbaa !12
  %41 = add i64 %40, 1
  store i64 %41, ptr %10, align 8, !tbaa !12
  br label %12, !llvm.loop !19

42:                                               ; preds = %29, %12
  %43 = load ptr, ptr %7, align 8, !tbaa !7
  %44 = load ptr, ptr %4, align 8, !tbaa !7
  %45 = ptrtoint ptr %43 to i64
  %46 = ptrtoint ptr %44 to i64
  %47 = sub i64 %45, %46
  %48 = load ptr, ptr %6, align 8, !tbaa !14
  store i64 %47, ptr %48, align 8, !tbaa !12
  %49 = load i64, ptr %8, align 8, !tbaa !12
  call void @llvm.lifetime.end.p0(i64 8, ptr %10) #16
  call void @llvm.lifetime.end.p0(i64 1, ptr %9) #16
  call void @llvm.lifetime.end.p0(i64 8, ptr %8) #16
  call void @llvm.lifetime.end.p0(i64 8, ptr %7) #16
  ret i64 %49
}