; Function Attrs: nofree norecurse nosync nounwind sspstrong memory(argmem: readwrite) uwtable
define dso_local i64 @ruby_scan_hex(ptr noundef nonnull %0, i64 noundef %1, ptr noundef nonnull writeonly captures(none) %2) local_unnamed_addr #0 {
  %.not = icmp eq i64 %1, 0
  br i1 %.not, label %._crit_edge, label %.lr.ph.preheader

.lr.ph.preheader:                                 ; preds = %3
  %scevgep = getelementptr i8, ptr %0, i64 %1
  br label %.lr.ph

.lr.ph:                                           ; preds = %.lr.ph.preheader, %8
  %.020 = phi i64 [ %13, %8 ], [ 0, %.lr.ph.preheader ]
  %.01619 = phi ptr [ %12, %8 ], [ %0, %.lr.ph.preheader ]
  %.01718 = phi i64 [ %11, %8 ], [ 0, %.lr.ph.preheader ]
  %4 = load i8, ptr %.01619, align 1, !tbaa !7
  %5 = zext i8 %4 to i64
  %6 = getelementptr [0 x i8], ptr @ruby_digit36_to_number_table, i64 0, i64 %5
  %7 = load i8, ptr %6, align 1, !tbaa !7
  %or.cond = icmp ugt i8 %7, 15
  br i1 %or.cond, label %._crit_edge, label %8

8:                                                ; preds = %.lr.ph
  %9 = shl i64 %.01718, 4
  %10 = zext nneg i8 %7 to i64
  %11 = or disjoint i64 %9, %10
  %12 = getelementptr i8, ptr %.01619, i64 1
  %13 = add nuw i64 %.020, 1
  %exitcond.not = icmp eq i64 %13, %1
  br i1 %exitcond.not, label %._crit_edge, label %.lr.ph, !llvm.loop !14

._crit_edge:                                      ; preds = %8, %.lr.ph, %3
  %.017.lcssa = phi i64 [ 0, %3 ], [ %.01718, %.lr.ph ], [ %11, %8 ]
  %.016.lcssa = phi ptr [ %0, %3 ], [ %.01619, %.lr.ph ], [ %scevgep, %8 ]
  %14 = ptrtoint ptr %.016.lcssa to i64
  %15 = ptrtoint ptr %0 to i64
  %16 = sub i64 %14, %15
  store i64 %16, ptr %2, align 8, !tbaa !12
  ret i64 %.017.lcssa
}